; Function Attrs: mustprogress nofree norecurse nosync nounwind memory(readwrite, inaccessiblemem: none) uwtable
define void @_ZN3gmx20InMemoryDeserializer8doDoubleEPd(ptr nocapture noundef nonnull readonly align 8 dereferenceable(16) %0, ptr nocapture noundef writeonly %1) unnamed_addr #3 align 2 {
  %3 = alloca %union.anon.27, align 8
  %4 = getelementptr inbounds i8, ptr %0, i64 8
  %5 = load ptr, ptr %4, align 8
  %6 = getelementptr inbounds i8, ptr %5, i64 32
  %7 = load i32, ptr %6, align 8
  %8 = icmp eq i32 %7, 1
  %9 = getelementptr inbounds i8, ptr %5, i64 24
  %10 = load i64, ptr %9, align 8
  %11 = load i64, ptr %5, align 8
  %12 = inttoptr i64 %11 to ptr
  %13 = getelementptr inbounds i8, ptr %12, i64 %10
  %14 = load double, ptr %13, align 1
  br i1 %8, label %15, label %_ZN3gmx20InMemoryDeserializer4Impl7doValueIdEEvPT_.exit

15:                                               ; preds = %2
  call void @llvm.lifetime.start.p0(i64 8, ptr nonnull %3)
  store double %14, ptr %3, align 8
  br label %16

16:                                               ; preds = %16, %15
  %indvars.iv3.i.i = phi i64 [ 7, %15 ], [ %indvars.iv.next4.i.i, %16 ]
  %indvars.iv.i.i = phi i64 [ 0, %15 ], [ %indvars.iv.next.i.i, %16 ]
  %17 = getelementptr inbounds [8 x i8], ptr %3, i64 0, i64 %indvars.iv.i.i
  %18 = getelementptr inbounds [8 x i8], ptr %3, i64 0, i64 %indvars.iv3.i.i
  %19 = load i8, ptr %17, align 1
  %20 = load i8, ptr %18, align 1
  store i8 %20, ptr %17, align 1
  store i8 %19, ptr %18, align 1
  %indvars.iv.next.i.i = add nuw nsw i64 %indvars.iv.i.i, 1
  %indvars.iv.next4.i.i = add nsw i64 %indvars.iv3.i.i, -1
  %21 = icmp sgt i64 %indvars.iv.next4.i.i, %indvars.iv.next.i.i
  br i1 %21, label %16, label %_ZN3gmx12_GLOBAL__N_110swapEndianIdEET_RKS2_.exit.i, !llvm.loop !10

_ZN3gmx12_GLOBAL__N_110swapEndianIdEET_RKS2_.exit.i: ; preds = %16
  %22 = load double, ptr %3, align 8
  call void @llvm.lifetime.end.p0(i64 8, ptr nonnull %3)
  br label %_ZN3gmx20InMemoryDeserializer4Impl7doValueIdEEvPT_.exit

_ZN3gmx20InMemoryDeserializer4Impl7doValueIdEEvPT_.exit: ; preds = %2, %_ZN3gmx12_GLOBAL__N_110swapEndianIdEET_RKS2_.exit.i
  %storemerge.i = phi double [ %22, %_ZN3gmx12_GLOBAL__N_110swapEndianIdEET_RKS2_.exit.i ], [ %14, %2 ]
  store double %storemerge.i, ptr %1, align 8
  %23 = load i64, ptr %9, align 8
  %24 = add i64 %23, 8
  store i64 %24, ptr %9, align 8
  ret void
}